target datalayout = "e-m:e-p270:32:32-p271:32:32-p272:64:64-i64:64-i128:128-f80:128-n8:16:32:64-S128"
target triple = "x86_64-pc-linux-gnu"

@.str = private unnamed_addr constant [3 x i8] c"%d\00", align 1

; Function Attrs: mustprogress nounwind uwtable
define noundef i32 @_ZN3url7_itow_sEiPtmi(i32 noundef %0, ptr noundef %1, i64 noundef %2, i32 noundef %3) #5 {
  %5 = alloca i32, align 4
  %6 = alloca i32, align 4
  %7 = alloca ptr, align 8
  %8 = alloca i64, align 8
  %9 = alloca i32, align 4
  %10 = alloca [13 x i8], align 1
  %11 = alloca i32, align 4
  %12 = alloca i32, align 4
  %13 = alloca i32, align 4
  store i32 %0, ptr %6, align 4, !tbaa !8
  store ptr %1, ptr %7, align 8, !tbaa !17
  store i64 %2, ptr %8, align 8, !tbaa !74
  store i32 %3, ptr %9, align 4, !tbaa !8
  %14 = load i32, ptr %9, align 4, !tbaa !8
  %15 = icmp ne i32 %14, 10
  br i1 %15, label %16, label %17

16:                                               ; preds = %4
  store i32 22, ptr %5, align 4
  br label %51

17:                                               ; preds = %4
  call void @llvm.lifetime.start.p0(i64 13, ptr %10) #8
  call void @llvm.lifetime.start.p0(i64 4, ptr %11) #8
  %18 = getelementptr inbounds [13 x i8], ptr %10, i64 0, i64 0
  %19 = load i32, ptr %6, align 4, !tbaa !8
  %20 = call i32 (ptr, i64, ptr, ...) @snprintf(ptr noundef %18, i64 noundef 13, ptr noundef @.str, i32 noundef %19) #8
  store i32 %20, ptr %11, align 4, !tbaa !8
  %21 = load i32, ptr %11, align 4, !tbaa !8
  %22 = sext i32 %21 to i64
  %23 = load i64, ptr %8, align 8, !tbaa !74
  %24 = icmp uge i64 %22, %23
  br i1 %24, label %25, label %26

25:                                               ; preds = %17
  store i32 22, ptr %5, align 4
  store i32 1, ptr %12, align 4
  br label %50

26:                                               ; preds = %17
  call void @llvm.lifetime.start.p0(i64 4, ptr %13) #8
  store i32 0, ptr %13, align 4, !tbaa !8
  br label %27

27:                                               ; preds = %42, %26
  %28 = load i32, ptr %13, align 4, !tbaa !8
  %29 = load i32, ptr %11, align 4, !tbaa !8
  %30 = icmp slt i32 %28, %29
  br i1 %30, label %32, label %31

31:                                               ; preds = %27
  store i32 2, ptr %12, align 4
  call void @llvm.lifetime.end.p0(i64 4, ptr %13) #8
  br label %45

32:                                               ; preds = %27
  %33 = load i32, ptr %13, align 4, !tbaa !8
  %34 = sext i32 %33 to i64
  %35 = getelementptr inbounds [13 x i8], ptr %10, i64 0, i64 %34
  %36 = load i8, ptr %35, align 1, !tbaa !14
  %37 = sext i8 %36 to i16
  %38 = load ptr, ptr %7, align 8, !tbaa !17
  %39 = load i32, ptr %13, align 4, !tbaa !8
  %40 = sext i32 %39 to i64
  %41 = getelementptr inbounds i16, ptr %38, i64 %40
  store i16 %37, ptr %41, align 2, !tbaa !19
  br label %42

42:                                               ; preds = %32
  %43 = load i32, ptr %13, align 4, !tbaa !8
  %44 = add nsw i32 %43, 1
  store i32 %44, ptr %13, align 4, !tbaa !8
  br label %27, !llvm.loop !76

45:                                               ; preds = %31
  %46 = load ptr, ptr %7, align 8, !tbaa !17
  %47 = load i32, ptr %11, align 4, !tbaa !8
  %48 = sext i32 %47 to i64
  %49 = getelementptr inbounds i16, ptr %46, i64 %48
  store i16 0, ptr %49, align 2, !tbaa !19
  store i32 0, ptr %5, align 4
  store i32 1, ptr %12, align 4
  br label %50

50:                                               ; preds = %45, %25
  call void @llvm.lifetime.end.p0(i64 4, ptr %11) #8
  call void @llvm.lifetime.end.p0(i64 13, ptr %10) #8
  br label %51

51:                                               ; preds = %50, %16
  %52 = load i32, ptr %5, align 4
  ret i32 %52
}