; Function Attrs: mustprogress nofree nounwind uwtable
define noundef range(i32 0, 23) i32 @_ZN3url7_itow_sEiPtmi(i32 noundef %0, ptr noundef writeonly captures(none) %1, i64 noundef %2, i32 noundef %3) local_unnamed_addr #4 {
  %5 = alloca [13 x i8], align 1
  %.not = icmp eq i32 %3, 10
  br i1 %.not, label %6, label %16

6:                                                ; preds = %4
  call void @llvm.lifetime.start.p0(i64 13, ptr nonnull %5) #7
  %7 = call i32 (ptr, i64, ptr, ...) @snprintf(ptr noundef nonnull dereferenceable(1) %5, i64 noundef 13, ptr noundef nonnull @.str, i32 noundef %0) #7
  %8 = sext i32 %7 to i64
  %.not14 = icmp ugt i64 %2, %8
  br i1 %.not14, label %.preheader, label %15

.preheader:                                       ; preds = %6
  %9 = icmp sgt i32 %7, 0
  br i1 %9, label %.lr.ph.preheader, label %._crit_edge

.lr.ph.preheader:                                 ; preds = %.preheader
  %wide.trip.count = zext nneg i32 %7 to i64
  br label %.lr.ph

._crit_edge:                                      ; preds = %.lr.ph, %.preheader
  %10 = getelementptr inbounds i16, ptr %1, i64 %8
  store i16 0, ptr %10, align 2, !tbaa !19
  br label %15

.lr.ph:                                           ; preds = %.lr.ph.preheader, %.lr.ph
  %indvars.iv = phi i64 [ 0, %.lr.ph.preheader ], [ %indvars.iv.next, %.lr.ph ]
  %11 = getelementptr inbounds nuw [13 x i8], ptr %5, i64 0, i64 %indvars.iv
  %12 = load i8, ptr %11, align 1, !tbaa !7
  %13 = sext i8 %12 to i16
  %14 = getelementptr inbounds nuw i16, ptr %1, i64 %indvars.iv
  store i16 %13, ptr %14, align 2, !tbaa !19
  %indvars.iv.next = add nuw nsw i64 %indvars.iv, 1
  %exitcond.not = icmp eq i64 %indvars.iv.next, %wide.trip.count
  br i1 %exitcond.not, label %._crit_edge, label %.lr.ph, !llvm.loop !57

15:                                               ; preds = %6, %._crit_edge
  %.1 = phi i32 [ 0, %._crit_edge ], [ 22, %6 ]
  call void @llvm.lifetime.end.p0(i64 13, ptr nonnull %5) #7
  br label %16

16:                                               ; preds = %4, %15
  %.012 = phi i32 [ %.1, %15 ], [ 22, %4 ]
  ret i32 %.012
}